target datalayout = "e-m:e-p270:32:32-p271:32:32-p272:64:64-i64:64-i128:128-f80:128-n8:16:32:64-S128"
target triple = "x86_64-pc-linux-gnu"

%"class.pxrInternal_v0_24__pxrReserved__::JsValue" = type { %"class.std::shared_ptr" }
%"class.std::shared_ptr" = type { %"class.std::__shared_ptr" }
%"class.std::__shared_ptr" = type { ptr, %"class.std::__shared_count" }
%"class.std::__shared_count" = type { ptr }
%"class.pxrInternal_v0_24__pxrReserved__::TfCallContext" = type <{ ptr, ptr, i64, ptr, i8, [7 x i8] }>
%"class.std::__cxx11::basic_string" = type { %"struct.std::__cxx11::basic_string<char>::_Alloc_hider", i64, %union.anon }
%"struct.std::__cxx11::basic_string<char>::_Alloc_hider" = type { ptr }
%union.anon = type { i64, [8 x i8] }
%"class.std::istreambuf_iterator" = type <{ ptr, i32, [4 x i8] }>
%"class.std::allocator" = type { i8 }

@.str = private unnamed_addr constant [114 x i8] c"generated/home/dtcxzyw/WorkSpace/Projects/compilers/llvm-opt-benchmark/bench/openusd/OpenUSD/pxr/base/js/json.cpp\00", align 1
@__func__._ZN32pxrInternal_v0_24__pxrReserved__13JsParseStreamERSiPNS_12JsParseErrorE = private unnamed_addr constant [14 x i8] c"JsParseStream\00", align 1
@__PRETTY_FUNCTION__._ZN32pxrInternal_v0_24__pxrReserved__13JsParseStreamERSiPNS_12JsParseErrorE = private unnamed_addr constant [88 x i8] c"JsValue pxrInternal_v0_24__pxrReserved__::JsParseStream(std::istream &, JsParseError *)\00", align 1
@.str.1 = private unnamed_addr constant [13 x i8] c"Stream error\00", align 1

; Function Attrs: mustprogress nounwind uwtable
define linkonce_odr void @_ZNSt7__cxx1112basic_stringIcSt11char_traitsIcESaIcEE12_Alloc_hiderD2Ev(ptr noundef nonnull align 8 dereferenceable(8) %0) unnamed_addr #5 comdat align 2 {
  %2 = alloca ptr, align 8
  store ptr %0, ptr %2, align 8
  %3 = load ptr, ptr %2, align 8
  call void @_ZNSaIcED2Ev(ptr noundef nonnull align 1 dereferenceable(1) %3) #3
  ret void
}

; Function Attrs: mustprogress nounwind uwtable
define linkonce_odr void @_ZSt19__iterator_categoryISt19istreambuf_iteratorIcSt11char_traitsIcEEENSt15iterator_traitsIT_E17iterator_categoryERKS5_(ptr noundef nonnull align 8 dereferenceable(12) %0) #5 comdat {
  %2 = alloca ptr, align 8
  store ptr %0, ptr %2, align 8
  ret void
}

; Function Attrs: mustprogress nounwind uwtable
define linkonce_odr noundef i32 @_ZNSt11char_traitsIcE3eofEv() #5 comdat align 2 {
  ret i32 -1
}

; Function Attrs: mustprogress uwtable
define linkonce_odr void @_ZNSt7__cxx1112basic_stringIcSt11char_traitsIcESaIcEEC2ISt19istreambuf_iteratorIcS2_EvEET_S8_RKS3_(ptr noundef nonnull align 8 dereferenceable(32) %0, ptr %1, i32 %2, ptr %3, i32 %4, ptr noundef nonnull align 1 dereferenceable(1) %5) unnamed_addr #4 comdat align 2 personality ptr @__gxx_personality_v0 {
  %7 = alloca %"class.std::istreambuf_iterator", align 8
  %8 = alloca %"class.std::istreambuf_iterator", align 8
  %9 = alloca ptr, align 8
  %10 = alloca ptr, align 8
  %11 = alloca %"class.std::istreambuf_iterator", align 8
  %12 = alloca %"class.std::istreambuf_iterator", align 8
  %13 = alloca ptr, align 8
  %14 = alloca i32, align 4
  %15 = getelementptr inbounds nuw { ptr, i32 }, ptr %7, i32 0, i32 0
  store ptr %1, ptr %15, align 8
  %16 = getelementptr inbounds nuw { ptr, i32 }, ptr %7, i32 0, i32 1
  store i32 %2, ptr %16, align 8
  %17 = getelementptr inbounds nuw { ptr, i32 }, ptr %8, i32 0, i32 0
  store ptr %3, ptr %17, align 8
  %18 = getelementptr inbounds nuw { ptr, i32 }, ptr %8, i32 0, i32 1
  store i32 %4, ptr %18, align 8
  store ptr %0, ptr %9, align 8
  store ptr %5, ptr %10, align 8
  %19 = load ptr, ptr %9, align 8
  %20 = getelementptr inbounds nuw %"class.std::__cxx11::basic_string", ptr %19, i32 0, i32 0
  %21 = call noundef ptr @_ZNSt7__cxx1112basic_stringIcSt11char_traitsIcESaIcEE13_M_local_dataEv(ptr noundef nonnull align 8 dereferenceable(32) %19)
  %22 = load ptr, ptr %10, align 8
  call void @_ZNSt7__cxx1112basic_stringIcSt11char_traitsIcESaIcEE12_Alloc_hiderC1EPcRKS3_(ptr noundef nonnull align 8 dereferenceable(8) %20, ptr noundef %21, ptr noundef nonnull align 1 dereferenceable(1) %22)
  %23 = getelementptr inbounds nuw %"class.std::__cxx11::basic_string", ptr %19, i32 0, i32 1
  store i64 0, ptr %23, align 8
  call void @llvm.memcpy.p0.p0.i64(ptr align 8 %11, ptr align 8 %7, i64 16, i1 false)
  call void @llvm.memcpy.p0.p0.i64(ptr align 8 %12, ptr align 8 %8, i64 16, i1 false)
  invoke void @_ZSt19__iterator_categoryISt19istreambuf_iteratorIcSt11char_traitsIcEEENSt15iterator_traitsIT_E17iterator_categoryERKS5_(ptr noundef nonnull align 8 dereferenceable(12) %7)
          to label %24 unwind label %34

24:                                               ; preds = %6
  %25 = getelementptr inbounds nuw { ptr, i32 }, ptr %11, i32 0, i32 0
  %26 = load ptr, ptr %25, align 8
  %27 = getelementptr inbounds nuw { ptr, i32 }, ptr %11, i32 0, i32 1
  %28 = load i32, ptr %27, align 8
  %29 = getelementptr inbounds nuw { ptr, i32 }, ptr %12, i32 0, i32 0
  %30 = load ptr, ptr %29, align 8
  %31 = getelementptr inbounds nuw { ptr, i32 }, ptr %12, i32 0, i32 1
  %32 = load i32, ptr %31, align 8
  invoke void @_ZNSt7__cxx1112basic_stringIcSt11char_traitsIcESaIcEE12_M_constructISt19istreambuf_iteratorIcS2_EEEvT_S8_St18input_iterator_tag(ptr noundef nonnull align 8 dereferenceable(32) %19, ptr %26, i32 %28, ptr %30, i32 %32)
          to label %33 unwind label %34

33:                                               ; preds = %24
  ret void

34:                                               ; preds = %24, %6
  %35 = landingpad { ptr, i32 }
          cleanup
  %36 = extractvalue { ptr, i32 } %35, 0
  store ptr %36, ptr %13, align 8
  %37 = extractvalue { ptr, i32 } %35, 1
  store i32 %37, ptr %14, align 4
  call void @_ZNSt7__cxx1112basic_stringIcSt11char_traitsIcESaIcEE12_Alloc_hiderD2Ev(ptr noundef nonnull align 8 dereferenceable(8) %20) #3
  br label %38

38:                                               ; preds = %34
  %39 = load ptr, ptr %13, align 8
  %40 = load i32, ptr %14, align 4
  %41 = insertvalue { ptr, i32 } poison, ptr %39, 0
  %42 = insertvalue { ptr, i32 } %41, i32 %40, 1
  resume { ptr, i32 } %42
}

; Function Attrs: mustprogress nounwind uwtable
define linkonce_odr void @_ZNSt19istreambuf_iteratorIcSt11char_traitsIcEEC2Ev(ptr noundef nonnull align 8 dereferenceable(12) %0) unnamed_addr #5 comdat align 2 {
  %2 = alloca ptr, align 8
  store ptr %0, ptr %2, align 8
  %3 = load ptr, ptr %2, align 8
  %4 = getelementptr inbounds nuw %"class.std::istreambuf_iterator", ptr %3, i32 0, i32 0
  store ptr null, ptr %4, align 8
  %5 = getelementptr inbounds nuw %"class.std::istreambuf_iterator", ptr %3, i32 0, i32 1
  %6 = call noundef i32 @_ZNSt11char_traitsIcE3eofEv() #3
  store i32 %6, ptr %5, align 8
  ret void
}

; Function Attrs: mustprogress nounwind uwtable
define linkonce_odr void @_ZNSt19istreambuf_iteratorIcSt11char_traitsIcEEC2ERSi(ptr noundef nonnull align 8 dereferenceable(12) %0, ptr noundef nonnull align 8 dereferenceable(16) %1) unnamed_addr #5 comdat align 2 personality ptr @__gxx_personality_v0 {
  %3 = alloca ptr, align 8
  %4 = alloca ptr, align 8
  store ptr %0, ptr %3, align 8
  store ptr %1, ptr %4, align 8
  %5 = load ptr, ptr %3, align 8
  %6 = getelementptr inbounds nuw %"class.std::istreambuf_iterator", ptr %5, i32 0, i32 0
  %7 = load ptr, ptr %4, align 8
  %8 = load ptr, ptr %7, align 8
  %9 = getelementptr i8, ptr %8, i64 -24
  %10 = load i64, ptr %9, align 8
  %11 = getelementptr inbounds i8, ptr %7, i64 %10
  %12 = invoke noundef ptr @_ZNKSt9basic_iosIcSt11char_traitsIcEE5rdbufEv(ptr noundef nonnull align 8 dereferenceable(264) %11)
          to label %13 unwind label %16

13:                                               ; preds = %2
  store ptr %12, ptr %6, align 8
  %14 = getelementptr inbounds nuw %"class.std::istreambuf_iterator", ptr %5, i32 0, i32 1
  %15 = call noundef i32 @_ZNSt11char_traitsIcE3eofEv() #3
  store i32 %15, ptr %14, align 8
  ret void

16:                                               ; preds = %2
  %17 = landingpad { ptr, i32 }
          catch ptr null
  %18 = extractvalue { ptr, i32 } %17, 0
  call void @__clang_call_terminate(ptr %18) #17
  unreachable
}

; Function Attrs: mustprogress nounwind uwtable
define linkonce_odr void @_ZN32pxrInternal_v0_24__pxrReserved__13TfCallContextC2EPKcS2_mS2_(ptr noundef nonnull align 8 dereferenceable(33) %0, ptr noundef %1, ptr noundef %2, i64 noundef %3, ptr noundef %4) unnamed_addr #5 comdat align 2 {
  %6 = alloca ptr, align 8
  %7 = alloca ptr, align 8
  %8 = alloca ptr, align 8
  %9 = alloca i64, align 8
  %10 = alloca ptr, align 8
  store ptr %0, ptr %6, align 8
  store ptr %1, ptr %7, align 8
  store ptr %2, ptr %8, align 8
  store i64 %3, ptr %9, align 8
  store ptr %4, ptr %10, align 8
  %11 = load ptr, ptr %6, align 8
  %12 = getelementptr inbounds nuw %"class.pxrInternal_v0_24__pxrReserved__::TfCallContext", ptr %11, i32 0, i32 0
  %13 = load ptr, ptr %7, align 8
  store ptr %13, ptr %12, align 8
  %14 = getelementptr inbounds nuw %"class.pxrInternal_v0_24__pxrReserved__::TfCallContext", ptr %11, i32 0, i32 1
  %15 = load ptr, ptr %8, align 8
  store ptr %15, ptr %14, align 8
  %16 = getelementptr inbounds nuw %"class.pxrInternal_v0_24__pxrReserved__::TfCallContext", ptr %11, i32 0, i32 2
  %17 = load i64, ptr %9, align 8
  store i64 %17, ptr %16, align 8
  %18 = getelementptr inbounds nuw %"class.pxrInternal_v0_24__pxrReserved__::TfCallContext", ptr %11, i32 0, i32 3
  %19 = load ptr, ptr %10, align 8
  store ptr %19, ptr %18, align 8
  %20 = getelementptr inbounds nuw %"class.pxrInternal_v0_24__pxrReserved__::TfCallContext", ptr %11, i32 0, i32 4
  store i8 0, ptr %20, align 8
  ret void
}

; Function Attrs: mustprogress uwtable
define void @_ZN32pxrInternal_v0_24__pxrReserved__13JsParseStreamERSiPNS_12JsParseErrorE(ptr dead_on_unwind noalias writable sret(%"class.pxrInternal_v0_24__pxrReserved__::JsValue") align 8 %0, ptr noundef nonnull align 8 dereferenceable(16) %1, ptr noundef %2) #4 personality ptr @__gxx_personality_v0 {
  %4 = alloca ptr, align 8
  %5 = alloca ptr, align 8
  %6 = alloca ptr, align 8
  %7 = alloca %"class.pxrInternal_v0_24__pxrReserved__::TfCallContext", align 8
  %8 = alloca %"class.std::__cxx11::basic_string", align 8
  %9 = alloca %"class.std::istreambuf_iterator", align 8
  %10 = alloca %"class.std::istreambuf_iterator", align 8
  %11 = alloca %"class.std::allocator", align 1
  %12 = alloca ptr, align 8
  %13 = alloca i32, align 4
  store ptr %0, ptr %4, align 8
  store ptr %1, ptr %5, align 8
  store ptr %2, ptr %6, align 8
  %14 = load ptr, ptr %5, align 8
  %15 = load ptr, ptr %14, align 8
  %16 = getelementptr i8, ptr %15, i64 -24
  %17 = load i64, ptr %16, align 8
  %18 = getelementptr inbounds i8, ptr %14, i64 %17
  %19 = call noundef zeroext i1 @_ZNKSt9basic_iosIcSt11char_traitsIcEEntEv(ptr noundef nonnull align 8 dereferenceable(264) %18)
  br i1 %19, label %20, label %21

20:                                               ; preds = %3
  call void @_ZN32pxrInternal_v0_24__pxrReserved__13TfCallContextC2EPKcS2_mS2_(ptr noundef nonnull align 8 dereferenceable(33) %7, ptr noundef @.str, ptr noundef @__func__._ZN32pxrInternal_v0_24__pxrReserved__13JsParseStreamERSiPNS_12JsParseErrorE, i64 noundef 214, ptr noundef @__PRETTY_FUNCTION__._ZN32pxrInternal_v0_24__pxrReserved__13JsParseStreamERSiPNS_12JsParseErrorE)
  call void (ptr, i32, ptr, ...) @_ZN32pxrInternal_v0_24__pxrReserved__18Tf_PostErrorHelperERKNS_13TfCallContextENS_16TfDiagnosticTypeEPKcz(ptr noundef nonnull align 8 dereferenceable(33) %7, i32 noundef 1, ptr noundef @.str.1)
  call void @_ZN32pxrInternal_v0_24__pxrReserved__7JsValueC1Ev(ptr noundef nonnull align 8 dereferenceable(16) %0)
  br label %43

21:                                               ; preds = %3
  %22 = load ptr, ptr %5, align 8
  call void @_ZNSt19istreambuf_iteratorIcSt11char_traitsIcEEC2ERSi(ptr noundef nonnull align 8 dereferenceable(12) %9, ptr noundef nonnull align 8 dereferenceable(16) %22) #3
  call void @_ZNSt19istreambuf_iteratorIcSt11char_traitsIcEEC2Ev(ptr noundef nonnull align 8 dereferenceable(12) %10) #3
  call void @_ZNSaIcEC1Ev(ptr noundef nonnull align 1 dereferenceable(1) %11) #3
  %23 = getelementptr inbounds nuw { ptr, i32 }, ptr %9, i32 0, i32 0
  %24 = load ptr, ptr %23, align 8
  %25 = getelementptr inbounds nuw { ptr, i32 }, ptr %9, i32 0, i32 1
  %26 = load i32, ptr %25, align 8
  %27 = getelementptr inbounds nuw { ptr, i32 }, ptr %10, i32 0, i32 0
  %28 = load ptr, ptr %27, align 8
  %29 = getelementptr inbounds nuw { ptr, i32 }, ptr %10, i32 0, i32 1
  %30 = load i32, ptr %29, align 8
  invoke void @_ZNSt7__cxx1112basic_stringIcSt11char_traitsIcESaIcEEC2ISt19istreambuf_iteratorIcS2_EvEET_S8_RKS3_(ptr noundef nonnull align 8 dereferenceable(32) %8, ptr %24, i32 %26, ptr %28, i32 %30, ptr noundef nonnull align 1 dereferenceable(1) %11)
          to label %31 unwind label %34

31:                                               ; preds = %21
  %32 = load ptr, ptr %6, align 8
  invoke void @_ZN32pxrInternal_v0_24__pxrReserved__13JsParseStringERKNSt7__cxx1112basic_stringIcSt11char_traitsIcESaIcEEEPNS_12JsParseErrorE(ptr dead_on_unwind writable sret(%"class.pxrInternal_v0_24__pxrReserved__::JsValue") align 8 %0, ptr noundef nonnull align 8 dereferenceable(32) %8, ptr noundef %32)
          to label %33 unwind label %38

33:                                               ; preds = %31
  call void @_ZNSt7__cxx1112basic_stringIcSt11char_traitsIcESaIcEED1Ev(ptr noundef nonnull align 8 dereferenceable(32) %8) #3
  call void @_ZNSaIcED1Ev(ptr noundef nonnull align 1 dereferenceable(1) %11) #3
  br label %43

34:                                               ; preds = %21
  %35 = landingpad { ptr, i32 }
          cleanup
  %36 = extractvalue { ptr, i32 } %35, 0
  store ptr %36, ptr %12, align 8
  %37 = extractvalue { ptr, i32 } %35, 1
  store i32 %37, ptr %13, align 4
  br label %42

38:                                               ; preds = %31
  %39 = landingpad { ptr, i32 }
          cleanup
  %40 = extractvalue { ptr, i32 } %39, 0
  store ptr %40, ptr %12, align 8
  %41 = extractvalue { ptr, i32 } %39, 1
  store i32 %41, ptr %13, align 4
  call void @_ZNSt7__cxx1112basic_stringIcSt11char_traitsIcESaIcEED1Ev(ptr noundef nonnull align 8 dereferenceable(32) %8) #3
  br label %42

42:                                               ; preds = %38, %34
  call void @_ZNSaIcED1Ev(ptr noundef nonnull align 1 dereferenceable(1) %11) #3
  br label %44

43:                                               ; preds = %33, %20
  ret void

44:                                               ; preds = %42
  %45 = load ptr, ptr %12, align 8
  %46 = load i32, ptr %13, align 4
  %47 = insertvalue { ptr, i32 } poison, ptr %45, 0
  %48 = insertvalue { ptr, i32 } %47, i32 %46, 1
  resume { ptr, i32 } %48
}