; Function Attrs: mustprogress uwtable
define void @_ZN32pxrInternal_v0_24__pxrReserved__13JsParseStreamERSiPNS_12JsParseErrorE(ptr dead_on_unwind noalias writable sret(%"class.pxrInternal_v0_24__pxrReserved__::JsValue") align 8 %0, ptr noundef nonnull align 8 dereferenceable(16) %1, ptr noundef %2) local_unnamed_addr #3 personality ptr @__gxx_personality_v0 {
  %4 = alloca %"class.pxrInternal_v0_24__pxrReserved__::TfCallContext", align 8
  %5 = alloca %"class.std::__cxx11::basic_string", align 8
  %6 = alloca %"class.std::allocator", align 1
  %7 = load ptr, ptr %1, align 8
  %8 = getelementptr i8, ptr %7, i64 -24
  %9 = load i64, ptr %8, align 8
  %10 = getelementptr inbounds i8, ptr %1, i64 %9
  %11 = tail call noundef zeroext i1 @_ZNKSt9basic_iosIcSt11char_traitsIcEEntEv(ptr noundef nonnull align 8 dereferenceable(264) %10)
  br i1 %11, label %12, label %17

12:                                               ; preds = %3
  store ptr @.str, ptr %4, align 8
  %13 = getelementptr inbounds nuw i8, ptr %4, i64 8
  store ptr @__func__._ZN32pxrInternal_v0_24__pxrReserved__13JsParseStreamERSiPNS_12JsParseErrorE, ptr %13, align 8
  %14 = getelementptr inbounds nuw i8, ptr %4, i64 16
  store i64 214, ptr %14, align 8
  %15 = getelementptr inbounds nuw i8, ptr %4, i64 24
  store ptr @__PRETTY_FUNCTION__._ZN32pxrInternal_v0_24__pxrReserved__13JsParseStreamERSiPNS_12JsParseErrorE, ptr %15, align 8
  %16 = getelementptr inbounds nuw i8, ptr %4, i64 32
  store i8 0, ptr %16, align 8
  call void (ptr, i32, ptr, ...) @_ZN32pxrInternal_v0_24__pxrReserved__18Tf_PostErrorHelperERKNS_13TfCallContextENS_16TfDiagnosticTypeEPKcz(ptr noundef nonnull align 8 dereferenceable(33) %4, i32 noundef 1, ptr noundef nonnull @.str.1)
  call void @_ZN32pxrInternal_v0_24__pxrReserved__7JsValueC1Ev(ptr noundef nonnull align 8 dereferenceable(16) %0)
  br label %35

17:                                               ; preds = %3
  %18 = load ptr, ptr %1, align 8
  %19 = getelementptr i8, ptr %18, i64 -24
  %20 = load i64, ptr %19, align 8
  %21 = getelementptr inbounds i8, ptr %1, i64 %20
  %22 = invoke noundef ptr @_ZNKSt9basic_iosIcSt11char_traitsIcEE5rdbufEv(ptr noundef nonnull align 8 dereferenceable(264) %21)
          to label %_ZNSt19istreambuf_iteratorIcSt11char_traitsIcEEC2ERSi.exit unwind label %23

23:                                               ; preds = %17
  %24 = landingpad { ptr, i32 }
          catch ptr null
  %25 = extractvalue { ptr, i32 } %24, 0
  tail call void @__clang_call_terminate(ptr %25) #23
  unreachable

_ZNSt19istreambuf_iteratorIcSt11char_traitsIcEEC2ERSi.exit: ; preds = %17
  call void @_ZNSaIcEC1Ev(ptr noundef nonnull align 1 dereferenceable(1) %6) #24
  %26 = invoke noundef ptr @_ZNSt7__cxx1112basic_stringIcSt11char_traitsIcESaIcEE13_M_local_dataEv(ptr noundef nonnull align 8 dereferenceable(32) %5)
          to label %.noexc unwind label %31

.noexc:                                           ; preds = %_ZNSt19istreambuf_iteratorIcSt11char_traitsIcEEC2ERSi.exit
  invoke void @_ZNSt7__cxx1112basic_stringIcSt11char_traitsIcESaIcEE12_Alloc_hiderC1EPcRKS3_(ptr noundef nonnull align 8 dereferenceable(32) %5, ptr noundef %26, ptr noundef nonnull align 1 dereferenceable(1) %6)
          to label %.noexc6 unwind label %31

.noexc6:                                          ; preds = %.noexc
  %27 = getelementptr inbounds nuw i8, ptr %5, i64 8
  store i64 0, ptr %27, align 8
  invoke void @_ZNSt7__cxx1112basic_stringIcSt11char_traitsIcESaIcEE12_M_constructISt19istreambuf_iteratorIcS2_EEEvT_S8_St18input_iterator_tag(ptr noundef nonnull align 8 dereferenceable(32) %5, ptr %22, i32 -1, ptr null, i32 -1)
          to label %_ZNSt7__cxx1112basic_stringIcSt11char_traitsIcESaIcEEC2ISt19istreambuf_iteratorIcS2_EvEET_S8_RKS3_.exit unwind label %28

28:                                               ; preds = %.noexc6
  %29 = landingpad { ptr, i32 }
          cleanup
  call void @_ZNSaIcED2Ev(ptr noundef nonnull align 8 dereferenceable(32) %5) #24
  br label %.body

_ZNSt7__cxx1112basic_stringIcSt11char_traitsIcESaIcEEC2ISt19istreambuf_iteratorIcS2_EvEET_S8_RKS3_.exit: ; preds = %.noexc6
  invoke void @_ZN32pxrInternal_v0_24__pxrReserved__13JsParseStringERKNSt7__cxx1112basic_stringIcSt11char_traitsIcESaIcEEEPNS_12JsParseErrorE(ptr dead_on_unwind writable sret(%"class.pxrInternal_v0_24__pxrReserved__::JsValue") align 8 %0, ptr noundef nonnull align 8 dereferenceable(32) %5, ptr noundef %2)
          to label %30 unwind label %33

30:                                               ; preds = %_ZNSt7__cxx1112basic_stringIcSt11char_traitsIcESaIcEEC2ISt19istreambuf_iteratorIcS2_EvEET_S8_RKS3_.exit
  call void @_ZNSt7__cxx1112basic_stringIcSt11char_traitsIcESaIcEED1Ev(ptr noundef nonnull align 8 dereferenceable(32) %5) #24
  call void @_ZNSaIcED1Ev(ptr noundef nonnull align 1 dereferenceable(1) %6) #24
  br label %35

31:                                               ; preds = %.noexc, %_ZNSt19istreambuf_iteratorIcSt11char_traitsIcEEC2ERSi.exit
  %32 = landingpad { ptr, i32 }
          cleanup
  br label %.body

33:                                               ; preds = %_ZNSt7__cxx1112basic_stringIcSt11char_traitsIcESaIcEEC2ISt19istreambuf_iteratorIcS2_EvEET_S8_RKS3_.exit
  %34 = landingpad { ptr, i32 }
          cleanup
  call void @_ZNSt7__cxx1112basic_stringIcSt11char_traitsIcESaIcEED1Ev(ptr noundef nonnull align 8 dereferenceable(32) %5) #24
  br label %.body

.body:                                            ; preds = %31, %28, %33
  %.pn = phi { ptr, i32 } [ %34, %33 ], [ %32, %31 ], [ %29, %28 ]
  call void @_ZNSaIcED1Ev(ptr noundef nonnull align 1 dereferenceable(1) %6) #24
  resume { ptr, i32 } %.pn

35:                                               ; preds = %30, %12
  ret void
}